target datalayout = "e-m:e-p270:32:32-p271:32:32-p272:64:64-i64:64-i128:128-f80:128-n8:16:32:64-S128"
target triple = "x86_64-pc-linux-gnu"

%struct.ATTRIBUTE_MAPPING_st = type { i32, %union.anon }
%union.anon = type { ptr }
%struct.ATTRIBUTE_TYPE_MAPPING_st = type { ptr, ptr }
%struct.ATTRIBUTE_VALUE_MAPPING_st = type { ptr, ptr }
%struct.atav_st = type { ptr, ptr }

@.str.11 = private unnamed_addr constant [4 x i8] c"%*s\00", align 1
@.str.12 = private unnamed_addr constant [1 x i8] zeroinitializer, align 1
@.str.13 = private unnamed_addr constant [2 x i8] c"\0A\00", align 1
@.str.14 = private unnamed_addr constant [5 x i8] c" == \00", align 1
@.str.15 = private unnamed_addr constant [2 x i8] c":\00", align 1

; Function Attrs: nounwind uwtable
define internal i32 @i2r_ATTRIBUTE_MAPPING(ptr noundef %0, ptr noundef %1, ptr noundef %2, i32 noundef %3) #0 {
  %5 = alloca i32, align 4
  %6 = alloca ptr, align 8
  %7 = alloca ptr, align 8
  %8 = alloca ptr, align 8
  %9 = alloca i32, align 4
  %10 = alloca ptr, align 8
  %11 = alloca ptr, align 8
  %12 = alloca i32, align 4
  %13 = alloca i32, align 4
  %14 = alloca ptr, align 8
  %15 = alloca ptr, align 8
  %16 = alloca i32, align 4
  store ptr %0, ptr %6, align 8, !tbaa !30
  store ptr %1, ptr %7, align 8, !tbaa !24
  store ptr %2, ptr %8, align 8, !tbaa !32
  store i32 %3, ptr %9, align 4, !tbaa !34
  call void @llvm.lifetime.start.p0(i64 8, ptr %10) #4
  call void @llvm.lifetime.start.p0(i64 8, ptr %11) #4
  call void @llvm.lifetime.start.p0(i64 4, ptr %12) #4
  call void @llvm.lifetime.start.p0(i64 4, ptr %13) #4
  call void @llvm.lifetime.start.p0(i64 8, ptr %14) #4
  call void @llvm.lifetime.start.p0(i64 8, ptr %15) #4
  %17 = load ptr, ptr %7, align 8, !tbaa !24
  %18 = getelementptr inbounds nuw %struct.ATTRIBUTE_MAPPING_st, ptr %17, i32 0, i32 0
  %19 = load i32, ptr %18, align 8, !tbaa !38
  switch i32 %19, label %114 [
    i32 0, label %20
    i32 1, label %43
  ]

20:                                               ; preds = %4
  %21 = load ptr, ptr %8, align 8, !tbaa !32
  %22 = load ptr, ptr %7, align 8, !tbaa !24
  %23 = getelementptr inbounds nuw %struct.ATTRIBUTE_MAPPING_st, ptr %22, i32 0, i32 1
  %24 = load ptr, ptr %23, align 8, !tbaa !40
  %25 = getelementptr inbounds nuw %struct.ATTRIBUTE_TYPE_MAPPING_st, ptr %24, i32 0, i32 0
  %26 = load ptr, ptr %25, align 8, !tbaa !41
  %27 = call i32 @i2a_ASN1_OBJECT(ptr noundef %21, ptr noundef %26)
  %28 = icmp sle i32 %27, 0
  br i1 %28, label %29, label %30

29:                                               ; preds = %20
  store i32 0, ptr %5, align 4
  store i32 1, ptr %16, align 4
  br label %115

30:                                               ; preds = %20
  %31 = load ptr, ptr %8, align 8, !tbaa !32
  %32 = call i32 @BIO_puts(ptr noundef %31, ptr noundef @.str.14)
  %33 = icmp sle i32 %32, 0
  br i1 %33, label %34, label %35

34:                                               ; preds = %30
  store i32 0, ptr %5, align 4
  store i32 1, ptr %16, align 4
  br label %115

35:                                               ; preds = %30
  %36 = load ptr, ptr %8, align 8, !tbaa !32
  %37 = load ptr, ptr %7, align 8, !tbaa !24
  %38 = getelementptr inbounds nuw %struct.ATTRIBUTE_MAPPING_st, ptr %37, i32 0, i32 1
  %39 = load ptr, ptr %38, align 8, !tbaa !40
  %40 = getelementptr inbounds nuw %struct.ATTRIBUTE_TYPE_MAPPING_st, ptr %39, i32 0, i32 1
  %41 = load ptr, ptr %40, align 8, !tbaa !44
  %42 = call i32 @i2a_ASN1_OBJECT(ptr noundef %36, ptr noundef %41)
  store i32 %42, ptr %5, align 4
  store i32 1, ptr %16, align 4
  br label %115

43:                                               ; preds = %4
  %44 = load ptr, ptr %7, align 8, !tbaa !24
  %45 = getelementptr inbounds nuw %struct.ATTRIBUTE_MAPPING_st, ptr %44, i32 0, i32 1
  %46 = load ptr, ptr %45, align 8, !tbaa !40
  %47 = getelementptr inbounds nuw %struct.ATTRIBUTE_VALUE_MAPPING_st, ptr %46, i32 0, i32 0
  %48 = load ptr, ptr %47, align 8, !tbaa !45
  %49 = getelementptr inbounds nuw %struct.atav_st, ptr %48, i32 0, i32 0
  %50 = load ptr, ptr %49, align 8, !tbaa !47
  store ptr %50, ptr %10, align 8, !tbaa !50
  %51 = load ptr, ptr %7, align 8, !tbaa !24
  %52 = getelementptr inbounds nuw %struct.ATTRIBUTE_MAPPING_st, ptr %51, i32 0, i32 1
  %53 = load ptr, ptr %52, align 8, !tbaa !40
  %54 = getelementptr inbounds nuw %struct.ATTRIBUTE_VALUE_MAPPING_st, ptr %53, i32 0, i32 1
  %55 = load ptr, ptr %54, align 8, !tbaa !51
  %56 = getelementptr inbounds nuw %struct.atav_st, ptr %55, i32 0, i32 0
  %57 = load ptr, ptr %56, align 8, !tbaa !47
  store ptr %57, ptr %11, align 8, !tbaa !50
  %58 = load ptr, ptr %7, align 8, !tbaa !24
  %59 = getelementptr inbounds nuw %struct.ATTRIBUTE_MAPPING_st, ptr %58, i32 0, i32 1
  %60 = load ptr, ptr %59, align 8, !tbaa !40
  %61 = getelementptr inbounds nuw %struct.ATTRIBUTE_VALUE_MAPPING_st, ptr %60, i32 0, i32 0
  %62 = load ptr, ptr %61, align 8, !tbaa !45
  %63 = getelementptr inbounds nuw %struct.atav_st, ptr %62, i32 0, i32 1
  %64 = load ptr, ptr %63, align 8, !tbaa !52
  store ptr %64, ptr %14, align 8, !tbaa !53
  %65 = load ptr, ptr %7, align 8, !tbaa !24
  %66 = getelementptr inbounds nuw %struct.ATTRIBUTE_MAPPING_st, ptr %65, i32 0, i32 1
  %67 = load ptr, ptr %66, align 8, !tbaa !40
  %68 = getelementptr inbounds nuw %struct.ATTRIBUTE_VALUE_MAPPING_st, ptr %67, i32 0, i32 1
  %69 = load ptr, ptr %68, align 8, !tbaa !51
  %70 = getelementptr inbounds nuw %struct.atav_st, ptr %69, i32 0, i32 1
  %71 = load ptr, ptr %70, align 8, !tbaa !52
  store ptr %71, ptr %15, align 8, !tbaa !53
  %72 = load ptr, ptr %10, align 8, !tbaa !50
  %73 = call i32 @OBJ_obj2nid(ptr noundef %72)
  store i32 %73, ptr %12, align 4, !tbaa !34
  %74 = load ptr, ptr %11, align 8, !tbaa !50
  %75 = call i32 @OBJ_obj2nid(ptr noundef %74)
  store i32 %75, ptr %13, align 4, !tbaa !34
  %76 = load ptr, ptr %8, align 8, !tbaa !32
  %77 = load ptr, ptr %10, align 8, !tbaa !50
  %78 = call i32 @i2a_ASN1_OBJECT(ptr noundef %76, ptr noundef %77)
  %79 = icmp sle i32 %78, 0
  br i1 %79, label %80, label %81

80:                                               ; preds = %43
  store i32 0, ptr %5, align 4
  store i32 1, ptr %16, align 4
  br label %115

81:                                               ; preds = %43
  %82 = load ptr, ptr %8, align 8, !tbaa !32
  %83 = call i32 @BIO_puts(ptr noundef %82, ptr noundef @.str.15)
  %84 = icmp sle i32 %83, 0
  br i1 %84, label %85, label %86

85:                                               ; preds = %81
  store i32 0, ptr %5, align 4
  store i32 1, ptr %16, align 4
  br label %115

86:                                               ; preds = %81
  %87 = load ptr, ptr %8, align 8, !tbaa !32
  %88 = load i32, ptr %12, align 4, !tbaa !34
  %89 = load ptr, ptr %14, align 8, !tbaa !53
  %90 = call i32 @ossl_print_attribute_value(ptr noundef %87, i32 noundef %88, ptr noundef %89, i32 noundef 0)
  %91 = icmp sle i32 %90, 0
  br i1 %91, label %92, label %93

92:                                               ; preds = %86
  store i32 0, ptr %5, align 4
  store i32 1, ptr %16, align 4
  br label %115

93:                                               ; preds = %86
  %94 = load ptr, ptr %8, align 8, !tbaa !32
  %95 = call i32 @BIO_puts(ptr noundef %94, ptr noundef @.str.14)
  %96 = icmp sle i32 %95, 0
  br i1 %96, label %97, label %98

97:                                               ; preds = %93
  store i32 0, ptr %5, align 4
  store i32 1, ptr %16, align 4
  br label %115

98:                                               ; preds = %93
  %99 = load ptr, ptr %8, align 8, !tbaa !32
  %100 = load ptr, ptr %11, align 8, !tbaa !50
  %101 = call i32 @i2a_ASN1_OBJECT(ptr noundef %99, ptr noundef %100)
  %102 = icmp sle i32 %101, 0
  br i1 %102, label %103, label %104

103:                                              ; preds = %98
  store i32 0, ptr %5, align 4
  store i32 1, ptr %16, align 4
  br label %115

104:                                              ; preds = %98
  %105 = load ptr, ptr %8, align 8, !tbaa !32
  %106 = call i32 @BIO_puts(ptr noundef %105, ptr noundef @.str.15)
  %107 = icmp sle i32 %106, 0
  br i1 %107, label %108, label %109

108:                                              ; preds = %104
  store i32 0, ptr %5, align 4
  store i32 1, ptr %16, align 4
  br label %115

109:                                              ; preds = %104
  %110 = load ptr, ptr %8, align 8, !tbaa !32
  %111 = load i32, ptr %13, align 4, !tbaa !34
  %112 = load ptr, ptr %15, align 8, !tbaa !53
  %113 = call i32 @ossl_print_attribute_value(ptr noundef %110, i32 noundef %111, ptr noundef %112, i32 noundef 0)
  store i32 %113, ptr %5, align 4
  store i32 1, ptr %16, align 4
  br label %115

114:                                              ; preds = %4
  store i32 0, ptr %5, align 4
  store i32 1, ptr %16, align 4
  br label %115

115:                                              ; preds = %114, %109, %108, %103, %97, %92, %85, %80, %35, %34, %29
  call void @llvm.lifetime.end.p0(i64 8, ptr %15) #4
  call void @llvm.lifetime.end.p0(i64 8, ptr %14) #4
  call void @llvm.lifetime.end.p0(i64 4, ptr %13) #4
  call void @llvm.lifetime.end.p0(i64 4, ptr %12) #4
  call void @llvm.lifetime.end.p0(i64 8, ptr %11) #4
  call void @llvm.lifetime.end.p0(i64 8, ptr %10) #4
  %116 = load i32, ptr %5, align 4
  ret i32 %116
}

; Function Attrs: inlinehint nounwind uwtable
define internal ptr @ossl_check_const_OSSL_ATTRIBUTE_MAPPING_sk_type(ptr noundef %0) #3 {
  %2 = alloca ptr, align 8
  store ptr %0, ptr %2, align 8, !tbaa !28
  %3 = load ptr, ptr %2, align 8, !tbaa !28
  ret ptr %3
}

; Function Attrs: nounwind uwtable
define internal i32 @i2r_ATTRIBUTE_MAPPINGS(ptr noundef %0, ptr noundef %1, ptr noundef %2, i32 noundef %3) #0 {
  %5 = alloca i32, align 4
  %6 = alloca ptr, align 8
  %7 = alloca ptr, align 8
  %8 = alloca ptr, align 8
  %9 = alloca i32, align 4
  %10 = alloca i32, align 4
  %11 = alloca ptr, align 8
  %12 = alloca i32, align 4
  store ptr %0, ptr %6, align 8, !tbaa !30
  store ptr %1, ptr %7, align 8, !tbaa !28
  store ptr %2, ptr %8, align 8, !tbaa !32
  store i32 %3, ptr %9, align 4, !tbaa !34
  call void @llvm.lifetime.start.p0(i64 4, ptr %10) #4
  call void @llvm.lifetime.start.p0(i64 8, ptr %11) #4
  store i32 0, ptr %10, align 4, !tbaa !34
  br label %13

13:                                               ; preds = %44, %4
  %14 = load i32, ptr %10, align 4, !tbaa !34
  %15 = load ptr, ptr %7, align 8, !tbaa !28
  %16 = call ptr @ossl_check_const_OSSL_ATTRIBUTE_MAPPING_sk_type(ptr noundef %15)
  %17 = call i32 @OPENSSL_sk_num(ptr noundef %16)
  %18 = icmp slt i32 %14, %17
  br i1 %18, label %19, label %47

19:                                               ; preds = %13
  %20 = load ptr, ptr %7, align 8, !tbaa !28
  %21 = call ptr @ossl_check_const_OSSL_ATTRIBUTE_MAPPING_sk_type(ptr noundef %20)
  %22 = load i32, ptr %10, align 4, !tbaa !34
  %23 = call ptr @OPENSSL_sk_value(ptr noundef %21, i32 noundef %22)
  store ptr %23, ptr %11, align 8, !tbaa !24
  %24 = load ptr, ptr %8, align 8, !tbaa !32
  %25 = load i32, ptr %9, align 4, !tbaa !34
  %26 = call i32 (ptr, ptr, ...) @BIO_printf(ptr noundef %24, ptr noundef @.str.11, i32 noundef %25, ptr noundef @.str.12)
  %27 = icmp sle i32 %26, 0
  br i1 %27, label %28, label %29

28:                                               ; preds = %19
  store i32 0, ptr %5, align 4
  store i32 1, ptr %12, align 4
  br label %48

29:                                               ; preds = %19
  %30 = load ptr, ptr %6, align 8, !tbaa !30
  %31 = load ptr, ptr %11, align 8, !tbaa !24
  %32 = load ptr, ptr %8, align 8, !tbaa !32
  %33 = load i32, ptr %9, align 4, !tbaa !34
  %34 = add nsw i32 %33, 4
  %35 = call i32 @i2r_ATTRIBUTE_MAPPING(ptr noundef %30, ptr noundef %31, ptr noundef %32, i32 noundef %34)
  %36 = icmp sle i32 %35, 0
  br i1 %36, label %37, label %38

37:                                               ; preds = %29
  store i32 0, ptr %5, align 4
  store i32 1, ptr %12, align 4
  br label %48

38:                                               ; preds = %29
  %39 = load ptr, ptr %8, align 8, !tbaa !32
  %40 = call i32 @BIO_puts(ptr noundef %39, ptr noundef @.str.13)
  %41 = icmp sle i32 %40, 0
  br i1 %41, label %42, label %43

42:                                               ; preds = %38
  store i32 0, ptr %5, align 4
  store i32 1, ptr %12, align 4
  br label %48

43:                                               ; preds = %38
  br label %44

44:                                               ; preds = %43
  %45 = load i32, ptr %10, align 4, !tbaa !34
  %46 = add nsw i32 %45, 1
  store i32 %46, ptr %10, align 4, !tbaa !34
  br label %13, !llvm.loop !36

47:                                               ; preds = %13
  store i32 1, ptr %5, align 4
  store i32 1, ptr %12, align 4
  br label %48

48:                                               ; preds = %47, %42, %37, %28
  call void @llvm.lifetime.end.p0(i64 8, ptr %11) #4
  call void @llvm.lifetime.end.p0(i64 4, ptr %10) #4
  %49 = load i32, ptr %5, align 4
  ret i32 %49
}