; Function Attrs: nounwind uwtable
define internal range(i32 0, 2) i32 @i2r_ATTRIBUTE_MAPPINGS(ptr readnone captures(none) %0, ptr noundef %1, ptr noundef %2, i32 noundef %3) #1 {
  %5 = tail call i32 @OPENSSL_sk_num(ptr noundef %1) #3
  %6 = icmp sgt i32 %5, 0
  br i1 %6, label %.lr.ph, label %i2r_ATTRIBUTE_MAPPING.exit.thread

7:                                                ; preds = %64
  %8 = add nuw nsw i32 %.01214, 1
  %9 = tail call i32 @OPENSSL_sk_num(ptr noundef %1) #3
  %10 = icmp slt i32 %8, %9
  br i1 %10, label %.lr.ph, label %i2r_ATTRIBUTE_MAPPING.exit.thread, !llvm.loop !3

.lr.ph:                                           ; preds = %4, %7
  %.01214 = phi i32 [ %8, %7 ], [ 0, %4 ]
  %11 = tail call ptr @OPENSSL_sk_value(ptr noundef %1, i32 noundef %.01214) #3
  %12 = tail call i32 (ptr, ptr, ...) @BIO_printf(ptr noundef %2, ptr noundef nonnull @.str.11, i32 noundef %3, ptr noundef nonnull @.str.12) #3
  %13 = icmp slt i32 %12, 1
  br i1 %13, label %i2r_ATTRIBUTE_MAPPING.exit.thread, label %14

14:                                               ; preds = %.lr.ph
  %15 = load i32, ptr %11, align 8, !tbaa !5
  switch i32 %15, label %i2r_ATTRIBUTE_MAPPING.exit.thread [
    i32 0, label %16
    i32 1, label %30
  ]

16:                                               ; preds = %14
  %17 = getelementptr inbounds nuw i8, ptr %11, i64 8
  %18 = load ptr, ptr %17, align 8, !tbaa !10
  %19 = load ptr, ptr %18, align 8, !tbaa !11
  %20 = tail call i32 @i2a_ASN1_OBJECT(ptr noundef %2, ptr noundef %19) #3
  %21 = icmp slt i32 %20, 1
  br i1 %21, label %i2r_ATTRIBUTE_MAPPING.exit.thread, label %22

22:                                               ; preds = %16
  %23 = tail call i32 @BIO_puts(ptr noundef %2, ptr noundef nonnull @.str.14) #3
  %24 = icmp slt i32 %23, 1
  br i1 %24, label %i2r_ATTRIBUTE_MAPPING.exit.thread, label %25

25:                                               ; preds = %22
  %26 = load ptr, ptr %17, align 8, !tbaa !10
  %27 = getelementptr inbounds nuw i8, ptr %26, i64 8
  %28 = load ptr, ptr %27, align 8, !tbaa !15
  %29 = tail call i32 @i2a_ASN1_OBJECT(ptr noundef %2, ptr noundef %28) #3
  br label %i2r_ATTRIBUTE_MAPPING.exit

30:                                               ; preds = %14
  %31 = getelementptr inbounds nuw i8, ptr %11, i64 8
  %32 = load ptr, ptr %31, align 8, !tbaa !10
  %33 = load ptr, ptr %32, align 8, !tbaa !16
  %34 = load ptr, ptr %33, align 8, !tbaa !19
  %35 = getelementptr inbounds nuw i8, ptr %32, i64 8
  %36 = load ptr, ptr %35, align 8, !tbaa !22
  %37 = load ptr, ptr %36, align 8, !tbaa !19
  %38 = getelementptr inbounds nuw i8, ptr %33, i64 8
  %39 = load ptr, ptr %38, align 8, !tbaa !23
  %40 = getelementptr inbounds nuw i8, ptr %36, i64 8
  %41 = load ptr, ptr %40, align 8, !tbaa !23
  %42 = tail call i32 @OBJ_obj2nid(ptr noundef %34) #3
  %43 = tail call i32 @OBJ_obj2nid(ptr noundef %37) #3
  %44 = tail call i32 @i2a_ASN1_OBJECT(ptr noundef %2, ptr noundef %34) #3
  %45 = icmp slt i32 %44, 1
  br i1 %45, label %i2r_ATTRIBUTE_MAPPING.exit.thread, label %46

46:                                               ; preds = %30
  %47 = tail call i32 @BIO_puts(ptr noundef %2, ptr noundef nonnull @.str.15) #3
  %48 = icmp slt i32 %47, 1
  br i1 %48, label %i2r_ATTRIBUTE_MAPPING.exit.thread, label %49

49:                                               ; preds = %46
  %50 = tail call i32 @ossl_print_attribute_value(ptr noundef %2, i32 noundef %42, ptr noundef %39, i32 noundef 0) #3
  %51 = icmp slt i32 %50, 1
  br i1 %51, label %i2r_ATTRIBUTE_MAPPING.exit.thread, label %52

52:                                               ; preds = %49
  %53 = tail call i32 @BIO_puts(ptr noundef %2, ptr noundef nonnull @.str.14) #3
  %54 = icmp slt i32 %53, 1
  br i1 %54, label %i2r_ATTRIBUTE_MAPPING.exit.thread, label %55

55:                                               ; preds = %52
  %56 = tail call i32 @i2a_ASN1_OBJECT(ptr noundef %2, ptr noundef %37) #3
  %57 = icmp slt i32 %56, 1
  br i1 %57, label %i2r_ATTRIBUTE_MAPPING.exit.thread, label %58

58:                                               ; preds = %55
  %59 = tail call i32 @BIO_puts(ptr noundef %2, ptr noundef nonnull @.str.15) #3
  %60 = icmp slt i32 %59, 1
  br i1 %60, label %i2r_ATTRIBUTE_MAPPING.exit.thread, label %61

61:                                               ; preds = %58
  %62 = tail call i32 @ossl_print_attribute_value(ptr noundef %2, i32 noundef %43, ptr noundef %41, i32 noundef 0) #3
  br label %i2r_ATTRIBUTE_MAPPING.exit

i2r_ATTRIBUTE_MAPPING.exit:                       ; preds = %25, %61
  %.0.i = phi i32 [ %62, %61 ], [ %29, %25 ]
  %63 = icmp slt i32 %.0.i, 1
  br i1 %63, label %i2r_ATTRIBUTE_MAPPING.exit.thread, label %64

64:                                               ; preds = %i2r_ATTRIBUTE_MAPPING.exit
  %65 = tail call i32 @BIO_puts(ptr noundef %2, ptr noundef nonnull @.str.13) #3
  %66 = icmp slt i32 %65, 1
  br i1 %66, label %i2r_ATTRIBUTE_MAPPING.exit.thread, label %7

i2r_ATTRIBUTE_MAPPING.exit.thread:                ; preds = %.lr.ph, %i2r_ATTRIBUTE_MAPPING.exit, %64, %7, %16, %22, %30, %46, %49, %52, %55, %58, %14, %4
  %.0 = phi i32 [ 1, %4 ], [ 0, %14 ], [ 0, %58 ], [ 0, %55 ], [ 0, %52 ], [ 0, %49 ], [ 0, %46 ], [ 0, %30 ], [ 0, %22 ], [ 0, %16 ], [ 1, %7 ], [ 0, %64 ], [ 0, %i2r_ATTRIBUTE_MAPPING.exit ], [ 0, %.lr.ph ]
  ret i32 %.0
}